target datalayout = "e-m:e-p270:32:32-p271:32:32-p272:64:64-i64:64-i128:128-f80:128-n8:16:32:64-S128"
target triple = "x86_64-pc-linux-gnu"

%struct.cbuf = type { %union.pthread_mutex_t, i32, i32, i32, i32, i32, i32, i32, i32, i32, i32, ptr }
%union.pthread_mutex_t = type { %struct.__pthread_mutex_s }
%struct.__pthread_mutex_s = type { i32, i32, i32, i32, i32, i16, i16, %struct.__pthread_internal_list }
%struct.__pthread_internal_list = type { ptr, ptr }

@.str.2 = private unnamed_addr constant [29 x i8] c"%s: pthread_mutex_lock(): %m\00", align 1
@.str.3 = private unnamed_addr constant [31 x i8] c"%s: pthread_mutex_unlock(): %m\00", align 1
@__func__.cbuf_replay_line = private unnamed_addr constant [17 x i8] c"cbuf_replay_line\00", align 1

; Function Attrs: nounwind uwtable
define internal i32 @cbuf_replayer(ptr noundef %0, i32 noundef %1, ptr noundef %2, ptr noundef %3) #0 {
  %5 = alloca i32, align 4
  %6 = alloca ptr, align 8
  %7 = alloca i32, align 4
  %8 = alloca ptr, align 8
  %9 = alloca ptr, align 8
  %10 = alloca i32, align 4
  %11 = alloca i32, align 4
  %12 = alloca i32, align 4
  %13 = alloca i32, align 4
  %14 = alloca i32, align 4
  store ptr %0, ptr %6, align 8
  store i32 %1, ptr %7, align 4
  store ptr %2, ptr %8, align 8
  store ptr %3, ptr %9, align 8
  call void @llvm.lifetime.start.p0(i64 4, ptr %10) #8
  call void @llvm.lifetime.start.p0(i64 4, ptr %11) #8
  call void @llvm.lifetime.start.p0(i64 4, ptr %12) #8
  call void @llvm.lifetime.start.p0(i64 4, ptr %13) #8
  %15 = load ptr, ptr %6, align 8
  %16 = getelementptr inbounds nuw %struct.cbuf, ptr %15, i32 0, i32 9
  %17 = load i32, ptr %16, align 8
  %18 = load ptr, ptr %6, align 8
  %19 = getelementptr inbounds nuw %struct.cbuf, ptr %18, i32 0, i32 10
  %20 = load i32, ptr %19, align 4
  %21 = sub nsw i32 %17, %20
  %22 = load ptr, ptr %6, align 8
  %23 = getelementptr inbounds nuw %struct.cbuf, ptr %22, i32 0, i32 4
  %24 = load i32, ptr %23, align 4
  %25 = add nsw i32 %24, 1
  %26 = add nsw i32 %21, %25
  %27 = load ptr, ptr %6, align 8
  %28 = getelementptr inbounds nuw %struct.cbuf, ptr %27, i32 0, i32 4
  %29 = load i32, ptr %28, align 4
  %30 = add nsw i32 %29, 1
  %31 = srem i32 %26, %30
  store i32 %31, ptr %11, align 4
  %32 = load i32, ptr %7, align 4
  %33 = load i32, ptr %11, align 4
  %34 = icmp slt i32 %32, %33
  br i1 %34, label %35, label %37

35:                                               ; preds = %4
  %36 = load i32, ptr %7, align 4
  br label %39

37:                                               ; preds = %4
  %38 = load i32, ptr %11, align 4
  br label %39

39:                                               ; preds = %37, %35
  %40 = phi i32 [ %36, %35 ], [ %38, %37 ]
  store i32 %40, ptr %7, align 4
  %41 = load i32, ptr %7, align 4
  %42 = icmp eq i32 %41, 0
  br i1 %42, label %43, label %44

43:                                               ; preds = %39
  store i32 0, ptr %5, align 4
  store i32 1, ptr %14, align 4
  br label %124

44:                                               ; preds = %39
  %45 = load ptr, ptr %6, align 8
  %46 = getelementptr inbounds nuw %struct.cbuf, ptr %45, i32 0, i32 9
  %47 = load i32, ptr %46, align 8
  %48 = load i32, ptr %7, align 4
  %49 = sub nsw i32 %47, %48
  %50 = load ptr, ptr %6, align 8
  %51 = getelementptr inbounds nuw %struct.cbuf, ptr %50, i32 0, i32 4
  %52 = load i32, ptr %51, align 4
  %53 = add nsw i32 %52, 1
  %54 = add nsw i32 %49, %53
  %55 = load ptr, ptr %6, align 8
  %56 = getelementptr inbounds nuw %struct.cbuf, ptr %55, i32 0, i32 4
  %57 = load i32, ptr %56, align 4
  %58 = add nsw i32 %57, 1
  %59 = srem i32 %54, %58
  store i32 %59, ptr %13, align 4
  %60 = load i32, ptr %7, align 4
  store i32 %60, ptr %10, align 4
  store i32 0, ptr %12, align 4
  br label %61

61:                                               ; preds = %113, %44
  %62 = load i32, ptr %10, align 4
  %63 = icmp sgt i32 %62, 0
  br i1 %63, label %64, label %114

64:                                               ; preds = %61
  %65 = load i32, ptr %10, align 4
  %66 = load ptr, ptr %6, align 8
  %67 = getelementptr inbounds nuw %struct.cbuf, ptr %66, i32 0, i32 4
  %68 = load i32, ptr %67, align 4
  %69 = add nsw i32 %68, 1
  %70 = load i32, ptr %13, align 4
  %71 = sub nsw i32 %69, %70
  %72 = icmp slt i32 %65, %71
  br i1 %72, label %73, label %75

73:                                               ; preds = %64
  %74 = load i32, ptr %10, align 4
  br label %82

75:                                               ; preds = %64
  %76 = load ptr, ptr %6, align 8
  %77 = getelementptr inbounds nuw %struct.cbuf, ptr %76, i32 0, i32 4
  %78 = load i32, ptr %77, align 4
  %79 = add nsw i32 %78, 1
  %80 = load i32, ptr %13, align 4
  %81 = sub nsw i32 %79, %80
  br label %82

82:                                               ; preds = %75, %73
  %83 = phi i32 [ %74, %73 ], [ %81, %75 ]
  store i32 %83, ptr %11, align 4
  %84 = load ptr, ptr %8, align 8
  %85 = load ptr, ptr %6, align 8
  %86 = getelementptr inbounds nuw %struct.cbuf, ptr %85, i32 0, i32 11
  %87 = load ptr, ptr %86, align 8
  %88 = load i32, ptr %13, align 4
  %89 = sext i32 %88 to i64
  %90 = getelementptr inbounds i8, ptr %87, i64 %89
  %91 = load ptr, ptr %9, align 8
  %92 = load i32, ptr %11, align 4
  %93 = call i32 %84(ptr noundef %90, ptr noundef %91, i32 noundef %92)
  store i32 %93, ptr %12, align 4
  %94 = load i32, ptr %12, align 4
  %95 = icmp sgt i32 %94, 0
  br i1 %95, label %96, label %108

96:                                               ; preds = %82
  %97 = load i32, ptr %12, align 4
  %98 = load i32, ptr %10, align 4
  %99 = sub nsw i32 %98, %97
  store i32 %99, ptr %10, align 4
  %100 = load i32, ptr %13, align 4
  %101 = load i32, ptr %12, align 4
  %102 = add nsw i32 %100, %101
  %103 = load ptr, ptr %6, align 8
  %104 = getelementptr inbounds nuw %struct.cbuf, ptr %103, i32 0, i32 4
  %105 = load i32, ptr %104, align 4
  %106 = add nsw i32 %105, 1
  %107 = srem i32 %102, %106
  store i32 %107, ptr %13, align 4
  br label %108

108:                                              ; preds = %96, %82
  %109 = load i32, ptr %11, align 4
  %110 = load i32, ptr %12, align 4
  %111 = icmp ne i32 %109, %110
  br i1 %111, label %112, label %113

112:                                              ; preds = %108
  br label %114

113:                                              ; preds = %108
  br label %61, !llvm.loop !13

114:                                              ; preds = %112, %61
  %115 = load i32, ptr %7, align 4
  %116 = load i32, ptr %10, align 4
  %117 = sub nsw i32 %115, %116
  store i32 %117, ptr %11, align 4
  %118 = load i32, ptr %11, align 4
  %119 = icmp eq i32 %118, 0
  br i1 %119, label %120, label %122

120:                                              ; preds = %114
  %121 = load i32, ptr %12, align 4
  store i32 %121, ptr %5, align 4
  store i32 1, ptr %14, align 4
  br label %124

122:                                              ; preds = %114
  %123 = load i32, ptr %11, align 4
  store i32 %123, ptr %5, align 4
  store i32 1, ptr %14, align 4
  br label %124

124:                                              ; preds = %122, %120, %43
  call void @llvm.lifetime.end.p0(i64 4, ptr %13) #8
  call void @llvm.lifetime.end.p0(i64 4, ptr %12) #8
  call void @llvm.lifetime.end.p0(i64 4, ptr %11) #8
  call void @llvm.lifetime.end.p0(i64 4, ptr %10) #8
  %125 = load i32, ptr %5, align 4
  ret i32 %125
}

; Function Attrs: nounwind uwtable
define dso_local i32 @cbuf_replay_line(ptr noundef %0, ptr noundef %1, i32 noundef %2, i32 noundef %3) #0 {
  %5 = alloca i32, align 4
  %6 = alloca ptr, align 8
  %7 = alloca ptr, align 8
  %8 = alloca i32, align 4
  %9 = alloca i32, align 4
  %10 = alloca i32, align 4
  %11 = alloca i32, align 4
  %12 = alloca i32, align 4
  %13 = alloca i32, align 4
  %14 = alloca ptr, align 8
  %15 = alloca i32, align 4
  %16 = alloca i32, align 4
  %17 = alloca i32, align 4
  store ptr %0, ptr %6, align 8
  store ptr %1, ptr %7, align 8
  store i32 %2, ptr %8, align 4
  store i32 %3, ptr %9, align 4
  call void @llvm.lifetime.start.p0(i64 4, ptr %10) #8
  call void @llvm.lifetime.start.p0(i64 4, ptr %11) #8
  call void @llvm.lifetime.start.p0(i64 4, ptr %12) #8
  call void @llvm.lifetime.start.p0(i64 4, ptr %13) #8
  call void @llvm.lifetime.start.p0(i64 8, ptr %14) #8
  %18 = load ptr, ptr %7, align 8
  %19 = icmp eq ptr %18, null
  br i1 %19, label %26, label %20

20:                                               ; preds = %4
  %21 = load i32, ptr %8, align 4
  %22 = icmp slt i32 %21, 0
  br i1 %22, label %26, label %23

23:                                               ; preds = %20
  %24 = load i32, ptr %9, align 4
  %25 = icmp slt i32 %24, -1
  br i1 %25, label %26, label %28

26:                                               ; preds = %23, %20, %4
  %27 = call ptr @__errno_location() #9
  store i32 22, ptr %27, align 4
  store i32 -1, ptr %5, align 4
  store i32 1, ptr %15, align 4
  br label %123

28:                                               ; preds = %23
  %29 = load i32, ptr %9, align 4
  %30 = icmp eq i32 %29, 0
  br i1 %30, label %31, label %32

31:                                               ; preds = %28
  store i32 0, ptr %5, align 4
  store i32 1, ptr %15, align 4
  br label %123

32:                                               ; preds = %28
  br label %33

33:                                               ; preds = %32
  call void @llvm.lifetime.start.p0(i64 4, ptr %16) #8
  %34 = load ptr, ptr %6, align 8
  %35 = getelementptr inbounds nuw %struct.cbuf, ptr %34, i32 0, i32 0
  %36 = call i32 @pthread_mutex_lock(ptr noundef %35) #8
  store i32 %36, ptr %16, align 4
  %37 = load i32, ptr %16, align 4
  %38 = icmp ne i32 %37, 0
  br i1 %38, label %39, label %42

39:                                               ; preds = %33
  %40 = load i32, ptr %16, align 4
  %41 = call ptr @__errno_location() #9
  store i32 %40, ptr %41, align 4
  call void (ptr, ...) @fatal_abort(ptr noundef @.str.2, ptr noundef @__func__.cbuf_replay_line) #10
  unreachable

42:                                               ; preds = %33
  call void @llvm.lifetime.end.p0(i64 4, ptr %16) #8
  br label %43

43:                                               ; preds = %42
  br label %44

44:                                               ; preds = %43
  %45 = load ptr, ptr %6, align 8
  %46 = load i32, ptr %8, align 4
  %47 = sub nsw i32 %46, 1
  %48 = call i32 @cbuf_find_replay_line(ptr noundef %45, i32 noundef %47, ptr noundef %9, ptr noundef %13)
  store i32 %48, ptr %10, align 4
  %49 = load i32, ptr %10, align 4
  %50 = icmp sgt i32 %49, 0
  br i1 %50, label %51, label %109

51:                                               ; preds = %44
  %52 = load i32, ptr %8, align 4
  %53 = icmp sgt i32 %52, 0
  br i1 %53, label %54, label %108

54:                                               ; preds = %51
  %55 = load i32, ptr %10, align 4
  %56 = load i32, ptr %8, align 4
  %57 = sub nsw i32 %56, 1
  %58 = load i32, ptr %13, align 4
  %59 = sub nsw i32 %57, %58
  %60 = icmp slt i32 %55, %59
  br i1 %60, label %61, label %63

61:                                               ; preds = %54
  %62 = load i32, ptr %10, align 4
  br label %68

63:                                               ; preds = %54
  %64 = load i32, ptr %8, align 4
  %65 = sub nsw i32 %64, 1
  %66 = load i32, ptr %13, align 4
  %67 = sub nsw i32 %65, %66
  br label %68

68:                                               ; preds = %63, %61
  %69 = phi i32 [ %62, %61 ], [ %67, %63 ]
  store i32 %69, ptr %11, align 4
  %70 = load i32, ptr %11, align 4
  %71 = icmp sgt i32 %70, 0
  br i1 %71, label %72, label %74

72:                                               ; preds = %68
  %73 = load i32, ptr %11, align 4
  br label %75

74:                                               ; preds = %68
  br label %75

75:                                               ; preds = %74, %72
  %76 = phi i32 [ %73, %72 ], [ 0, %74 ]
  store i32 %76, ptr %11, align 4
  %77 = load i32, ptr %11, align 4
  %78 = icmp sgt i32 %77, 0
  br i1 %78, label %79, label %88

79:                                               ; preds = %75
  %80 = load ptr, ptr %7, align 8
  store ptr %80, ptr %14, align 8
  %81 = load ptr, ptr %6, align 8
  %82 = load i32, ptr %11, align 4
  %83 = call i32 @cbuf_replayer(ptr noundef %81, i32 noundef %82, ptr noundef @cbuf_put_mem, ptr noundef %14)
  store i32 %83, ptr %12, align 4
  %84 = load i32, ptr %12, align 4
  %85 = icmp ne i32 %84, 0
  br i1 %85, label %86, label %87

86:                                               ; preds = %79
  br label %87

87:                                               ; preds = %86, %79
  br label %88

88:                                               ; preds = %87, %75
  %89 = load i32, ptr %13, align 4
  %90 = icmp ne i32 %89, 0
  br i1 %90, label %91, label %100

91:                                               ; preds = %88
  %92 = load i32, ptr %8, align 4
  %93 = icmp sgt i32 %92, 1
  br i1 %93, label %94, label %100

94:                                               ; preds = %91
  %95 = load ptr, ptr %7, align 8
  %96 = load i32, ptr %11, align 4
  %97 = add nsw i32 %96, 1
  store i32 %97, ptr %11, align 4
  %98 = sext i32 %96 to i64
  %99 = getelementptr inbounds i8, ptr %95, i64 %98
  store i8 10, ptr %99, align 1
  br label %100

100:                                              ; preds = %94, %91, %88
  %101 = load ptr, ptr %7, align 8
  %102 = load i32, ptr %11, align 4
  %103 = sext i32 %102 to i64
  %104 = getelementptr inbounds i8, ptr %101, i64 %103
  store i8 0, ptr %104, align 1
  %105 = load i32, ptr %13, align 4
  %106 = load i32, ptr %10, align 4
  %107 = add nsw i32 %106, %105
  store i32 %107, ptr %10, align 4
  br label %108

108:                                              ; preds = %100, %51
  br label %109

109:                                              ; preds = %108, %44
  br label %110

110:                                              ; preds = %109
  call void @llvm.lifetime.start.p0(i64 4, ptr %17) #8
  %111 = load ptr, ptr %6, align 8
  %112 = getelementptr inbounds nuw %struct.cbuf, ptr %111, i32 0, i32 0
  %113 = call i32 @pthread_mutex_unlock(ptr noundef %112) #8
  store i32 %113, ptr %17, align 4
  %114 = load i32, ptr %17, align 4
  %115 = icmp ne i32 %114, 0
  br i1 %115, label %116, label %119

116:                                              ; preds = %110
  %117 = load i32, ptr %17, align 4
  %118 = call ptr @__errno_location() #9
  store i32 %117, ptr %118, align 4
  call void (ptr, ...) @fatal_abort(ptr noundef @.str.3, ptr noundef @__func__.cbuf_replay_line) #10
  unreachable

119:                                              ; preds = %110
  call void @llvm.lifetime.end.p0(i64 4, ptr %17) #8
  br label %120

120:                                              ; preds = %119
  br label %121

121:                                              ; preds = %120
  %122 = load i32, ptr %10, align 4
  store i32 %122, ptr %5, align 4
  store i32 1, ptr %15, align 4
  br label %123

123:                                              ; preds = %121, %31, %26
  call void @llvm.lifetime.end.p0(i64 8, ptr %14) #8
  call void @llvm.lifetime.end.p0(i64 4, ptr %13) #8
  call void @llvm.lifetime.end.p0(i64 4, ptr %12) #8
  call void @llvm.lifetime.end.p0(i64 4, ptr %11) #8
  call void @llvm.lifetime.end.p0(i64 4, ptr %10) #8
  %124 = load i32, ptr %5, align 4
  ret i32 %124
}