; Function Attrs: nounwind uwtable
define dso_local i32 @cbuf_replay_line(ptr noundef %0, ptr noundef writeonly captures(address_is_null) %1, i32 noundef %2, i32 noundef %3) local_unnamed_addr #0 {
  %5 = alloca i32, align 4
  %6 = alloca i32, align 4
  store i32 %3, ptr %5, align 4
  call void @llvm.lifetime.start.p0(i64 4, ptr nonnull %6) #15
  %7 = icmp eq ptr %1, null
  %8 = icmp slt i32 %2, 0
  %or.cond = or i1 %7, %8
  %9 = icmp slt i32 %3, -1
  %or.cond3 = or i1 %or.cond, %9
  br i1 %or.cond3, label %10, label %12

10:                                               ; preds = %4
  %11 = tail call ptr @__errno_location() #14
  store i32 22, ptr %11, align 4
  br label %75

12:                                               ; preds = %4
  %13 = icmp eq i32 %3, 0
  br i1 %13, label %75, label %14

14:                                               ; preds = %12
  %15 = tail call i32 @pthread_mutex_lock(ptr noundef %0) #15
  %.not = icmp eq i32 %15, 0
  br i1 %.not, label %18, label %16

16:                                               ; preds = %14
  %17 = tail call ptr @__errno_location() #14
  store i32 %15, ptr %17, align 4
  tail call void (ptr, ...) @fatal_abort(ptr noundef nonnull @.str.2, ptr noundef nonnull @__func__.cbuf_replay_line) #16
  unreachable

18:                                               ; preds = %14
  %19 = add nsw i32 %2, -1
  %20 = call fastcc i32 @cbuf_find_replay_line(ptr noundef %0, i32 noundef %19, ptr noundef %5, ptr noundef nonnull %6)
  %21 = icmp sgt i32 %20, 0
  %22 = icmp ne i32 %2, 0
  %or.cond7 = and i1 %22, %21
  br i1 %or.cond7, label %23, label %71

23:                                               ; preds = %18
  %24 = load i32, ptr %6, align 4
  %25 = sub nsw i32 %19, %24
  %. = call i32 @llvm.smin.i32(i32 %20, i32 %25)
  %26 = icmp sgt i32 %25, 0
  %27 = call i32 @llvm.smax.i32(i32 %., i32 0)
  br i1 %26, label %28, label %cbuf_replayer.exit

28:                                               ; preds = %23
  %29 = getelementptr inbounds nuw i8, ptr %0, i64 72
  %30 = load i32, ptr %29, align 8
  %31 = getelementptr inbounds nuw i8, ptr %0, i64 76
  %32 = load i32, ptr %31, align 4
  %33 = sub i32 %30, %32
  %34 = getelementptr inbounds nuw i8, ptr %0, i64 52
  %35 = load i32, ptr %34, align 4
  %36 = add nsw i32 %35, 1
  %37 = add nsw i32 %33, %36
  %38 = srem i32 %37, %36
  %.old1.i = icmp sgt i32 %38, 0
  br i1 %.old1.i, label %.preheader.i, label %cbuf_replayer.exit

.preheader.i:                                     ; preds = %28
  %39 = call i32 @llvm.umin.i32(i32 %27, i32 %38)
  %40 = add i32 %36, %30
  %41 = sub i32 %40, %39
  %42 = srem i32 %41, %36
  %43 = getelementptr inbounds nuw i8, ptr %0, i64 80
  br label %44

44:                                               ; preds = %59, %.preheader.i
  %.048 = phi ptr [ %1, %.preheader.i ], [ %51, %59 ]
  %.042.i = phi i32 [ %39, %.preheader.i ], [ %.2.i, %59 ]
  %.0.i = phi i32 [ %42, %.preheader.i ], [ %.1.i, %59 ]
  %45 = load i32, ptr %34, align 4
  %reass.sub = sub i32 %45, %.0.i
  %46 = add i32 %reass.sub, 1
  %.042..i = call i32 @llvm.smin.i32(i32 %.042.i, i32 %46)
  %47 = load ptr, ptr %43, align 8
  %48 = sext i32 %.0.i to i64
  %49 = getelementptr inbounds i8, ptr %47, i64 %48
  %50 = sext i32 %.042..i to i64
  call void @llvm.memcpy.p0.p0.i64(ptr align 1 %.048, ptr readonly align 1 %49, i64 %50, i1 false)
  %51 = getelementptr inbounds i8, ptr %.048, i64 %50
  %52 = icmp sgt i32 %.042..i, 0
  br i1 %52, label %53, label %59

53:                                               ; preds = %44
  %54 = sub nsw i32 %.042.i, %.042..i
  %55 = add nsw i32 %.042..i, %.0.i
  %56 = load i32, ptr %34, align 4
  %57 = add nsw i32 %56, 1
  %58 = srem i32 %55, %57
  br label %59

59:                                               ; preds = %53, %44
  %.2.i = phi i32 [ %54, %53 ], [ %.042.i, %44 ]
  %.1.i = phi i32 [ %58, %53 ], [ %.0.i, %44 ]
  %60 = icmp sgt i32 %.2.i, 0
  br i1 %60, label %44, label %cbuf_replayer.exit, !llvm.loop !13

cbuf_replayer.exit:                               ; preds = %59, %28, %23
  %61 = icmp ne i32 %24, 0
  %62 = icmp sgt i32 %2, 1
  %or.cond5 = and i1 %62, %61
  br i1 %or.cond5, label %63, label %67

63:                                               ; preds = %cbuf_replayer.exit
  %64 = add nuw nsw i32 %27, 1
  %65 = zext nneg i32 %27 to i64
  %66 = getelementptr inbounds nuw i8, ptr %1, i64 %65
  store i8 10, ptr %66, align 1
  br label %67

67:                                               ; preds = %63, %cbuf_replayer.exit
  %.038 = phi i32 [ %64, %63 ], [ %27, %cbuf_replayer.exit ]
  %68 = zext nneg i32 %.038 to i64
  %69 = getelementptr inbounds nuw i8, ptr %1, i64 %68
  store i8 0, ptr %69, align 1
  %70 = add nsw i32 %24, %20
  br label %71

71:                                               ; preds = %18, %67
  %.037 = phi i32 [ %70, %67 ], [ %20, %18 ]
  %72 = call i32 @pthread_mutex_unlock(ptr noundef %0) #15
  %.not46 = icmp eq i32 %72, 0
  br i1 %.not46, label %75, label %73

73:                                               ; preds = %71
  %74 = tail call ptr @__errno_location() #14
  store i32 %72, ptr %74, align 4
  call void (ptr, ...) @fatal_abort(ptr noundef nonnull @.str.3, ptr noundef nonnull @__func__.cbuf_replay_line) #16
  unreachable

75:                                               ; preds = %71, %12, %10
  %.0 = phi i32 [ -1, %10 ], [ 0, %12 ], [ %.037, %71 ]
  call void @llvm.lifetime.end.p0(i64 4, ptr nonnull %6) #15
  ret i32 %.0
}